(dp0
S'pathout'
p1
S'.'
p2
sS'title'
p3
S'longlong'
p4
sS'colormp'
p5
S'jet'
p6
sS'dayin'
p7
S'1999-06-26'
p8
sS'vabs'
p9
(lp10
S'Precipitation'
p11
aS'Tair'
p12
aS'Swq'
p13
aS'Swnet'
p14
asS'units'
p15
(lp16
S'q'
p17
aS'w'
p18
aS'e'
p19
aS'r'
p20
asS'outformat'
p21
S'png'
p22
sS'subtitles'
p23
(lp24
S'a'
p25
aS'b'
p26
aS'c'
p27
aS'd'
p28
as.